; Function Attrs: null_pointer_is_valid sspstrong uwtable
define internal range(i32 4, 16776965) i32 @get_tpncp_pdu_len(ptr readnone captures(none) %0, ptr noundef %1, i32 noundef %2, ptr readnone captures(none) %3) #0 {
  %5 = add i32 %2, 2
  %6 = tail call zeroext i16 @tvb_get_ntohs(ptr noundef %1, i32 noundef %5)
  %7 = zext i16 %6 to i32
  %8 = add i32 %2, 6
  %9 = tail call zeroext i8 @tvb_get_uint8(ptr noundef %1, i32 noundef %8)
  %10 = zext i8 %9 to i32
  %11 = mul nuw nsw i32 %10, 65535
  %12 = add nuw nsw i32 %7, 4
  %13 = add nuw nsw i32 %12, %11
  ret i32 %13
}